; ModuleID = '14/1122.c'
source_filename = "14/1122.c"
target datalayout = "e-m:e-p270:32:32-p271:32:32-p272:64:64-i64:64-f80:128-n8:16:32:64-S128"
target triple = "x86_64-pc-linux-gnu"

%struct.student = type { i32, i32, i32, i32 }

@.str = private unnamed_addr constant [3 x i8] c"%d\00", align 1
@.str.1 = private unnamed_addr constant [7 x i8] c"%d%d%d\00", align 1
@tem_stu = common dso_local global %struct.student zeroinitializer, align 4
@.str.2 = private unnamed_addr constant [7 x i8] c"%d %d\0A\00", align 1

; Function Attrs: noinline nounwind uwtable
define dso_local i32 @main() #0 {
  %1 = alloca i32, align 4
  %2 = alloca i32, align 4
  %3 = alloca i32, align 4
  %4 = alloca %struct.student*, align 8
  %5 = alloca i32, align 4
  store i32 0, i32* %1, align 4
  %6 = call i32 (i8*, ...) @__isoc99_scanf(i8* getelementptr inbounds ([3 x i8], [3 x i8]* @.str, i64 0, i64 0), i32* %2)
  %7 = load i32, i32* %2, align 4
  %8 = sext i32 %7 to i64
  %9 = mul i64 %8, 16
  %10 = call noalias i8* @malloc(i64 %9) #4
  %11 = bitcast i8* %10 to %struct.student*
  store %struct.student* %11, %struct.student** %4, align 8
  store i32 0, i32* %3, align 4
  br label %12

12:                                               ; preds = %51, %0
  %13 = load i32, i32* %3, align 4
  %14 = load i32, i32* %2, align 4
  %15 = icmp slt i32 %13, %14
  br i1 %15, label %16, label %54

16:                                               ; preds = %12
  %17 = load %struct.student*, %struct.student** %4, align 8
  %18 = load i32, i32* %3, align 4
  %19 = sext i32 %18 to i64
  %20 = getelementptr inbounds %struct.student, %struct.student* %17, i64 %19
  %21 = getelementptr inbounds %struct.student, %struct.student* %20, i32 0, i32 0
  %22 = load %struct.student*, %struct.student** %4, align 8
  %23 = load i32, i32* %3, align 4
  %24 = sext i32 %23 to i64
  %25 = getelementptr inbounds %struct.student, %struct.student* %22, i64 %24
  %26 = getelementptr inbounds %struct.student, %struct.student* %25, i32 0, i32 1
  %27 = load %struct.student*, %struct.student** %4, align 8
  %28 = load i32, i32* %3, align 4
  %29 = sext i32 %28 to i64
  %30 = getelementptr inbounds %struct.student, %struct.student* %27, i64 %29
  %31 = getelementptr inbounds %struct.student, %struct.student* %30, i32 0, i32 2
  %32 = call i32 (i8*, ...) @__isoc99_scanf(i8* getelementptr inbounds ([7 x i8], [7 x i8]* @.str.1, i64 0, i64 0), i32* %21, i32* %26, i32* %31)
  %33 = load %struct.student*, %struct.student** %4, align 8
  %34 = load i32, i32* %3, align 4
  %35 = sext i32 %34 to i64
  %36 = getelementptr inbounds %struct.student, %struct.student* %33, i64 %35
  %37 = getelementptr inbounds %struct.student, %struct.student* %36, i32 0, i32 1
  %38 = load i32, i32* %37, align 4
  %39 = load %struct.student*, %struct.student** %4, align 8
  %40 = load i32, i32* %3, align 4
  %41 = sext i32 %40 to i64
  %42 = getelementptr inbounds %struct.student, %struct.student* %39, i64 %41
  %43 = getelementptr inbounds %struct.student, %struct.student* %42, i32 0, i32 2
  %44 = load i32, i32* %43, align 4
  %45 = add nsw i32 %38, %44
  %46 = load %struct.student*, %struct.student** %4, align 8
  %47 = load i32, i32* %3, align 4
  %48 = sext i32 %47 to i64
  %49 = getelementptr inbounds %struct.student, %struct.student* %46, i64 %48
  %50 = getelementptr inbounds %struct.student, %struct.student* %49, i32 0, i32 3
  store i32 %45, i32* %50, align 4
  br label %51

51:                                               ; preds = %16
  %52 = load i32, i32* %3, align 4
  %53 = add nsw i32 %52, 1
  store i32 %53, i32* %3, align 4
  br label %12

54:                                               ; preds = %12
  store i32 1, i32* %5, align 4
  br label %55

55:                                               ; preds = %108, %54
  %56 = load i32, i32* %5, align 4
  %57 = icmp slt i32 %56, 4
  br i1 %57, label %58, label %111

58:                                               ; preds = %55
  store i32 0, i32* %3, align 4
  br label %59

59:                                               ; preds = %104, %58
  %60 = load i32, i32* %3, align 4
  %61 = load i32, i32* %2, align 4
  %62 = load i32, i32* %5, align 4
  %63 = sub nsw i32 %61, %62
  %64 = icmp slt i32 %60, %63
  br i1 %64, label %65, label %107

65:                                               ; preds = %59
  %66 = load %struct.student*, %struct.student** %4, align 8
  %67 = load i32, i32* %3, align 4
  %68 = sext i32 %67 to i64
  %69 = getelementptr inbounds %struct.student, %struct.student* %66, i64 %68
  %70 = getelementptr inbounds %struct.student, %struct.student* %69, i32 0, i32 3
  %71 = load i32, i32* %70, align 4
  %72 = load %struct.student*, %struct.student** %4, align 8
  %73 = load i32, i32* %3, align 4
  %74 = add nsw i32 %73, 1
  %75 = sext i32 %74 to i64
  %76 = getelementptr inbounds %struct.student, %struct.student* %72, i64 %75
  %77 = getelementptr inbounds %struct.student, %struct.student* %76, i32 0, i32 3
  %78 = load i32, i32* %77, align 4
  %79 = icmp sge i32 %71, %78
  br i1 %79, label %80, label %103

80:                                               ; preds = %65
  %81 = load %struct.student*, %struct.student** %4, align 8
  %82 = load i32, i32* %3, align 4
  %83 = add nsw i32 %82, 1
  %84 = sext i32 %83 to i64
  %85 = getelementptr inbounds %struct.student, %struct.student* %81, i64 %84
  %86 = bitcast %struct.student* %85 to i8*
  call void @llvm.memcpy.p0i8.p0i8.i64(i8* align 4 bitcast (%struct.student* @tem_stu to i8*), i8* align 4 %86, i64 16, i1 false)
  %87 = load %struct.student*, %struct.student** %4, align 8
  %88 = load i32, i32* %3, align 4
  %89 = add nsw i32 %88, 1
  %90 = sext i32 %89 to i64
  %91 = getelementptr inbounds %struct.student, %struct.student* %87, i64 %90
  %92 = load %struct.student*, %struct.student** %4, align 8
  %93 = load i32, i32* %3, align 4
  %94 = sext i32 %93 to i64
  %95 = getelementptr inbounds %struct.student, %struct.student* %92, i64 %94
  %96 = bitcast %struct.student* %91 to i8*
  %97 = bitcast %struct.student* %95 to i8*
  call void @llvm.memcpy.p0i8.p0i8.i64(i8* align 4 %96, i8* align 4 %97, i64 16, i1 false)
  %98 = load %struct.student*, %struct.student** %4, align 8
  %99 = load i32, i32* %3, align 4
  %100 = sext i32 %99 to i64
  %101 = getelementptr inbounds %struct.student, %struct.student* %98, i64 %100
  %102 = bitcast %struct.student* %101 to i8*
  call void @llvm.memcpy.p0i8.p0i8.i64(i8* align 4 %102, i8* align 4 bitcast (%struct.student* @tem_stu to i8*), i64 16, i1 false)
  br label %103

103:                                              ; preds = %80, %65
  br label %104

104:                                              ; preds = %103
  %105 = load i32, i32* %3, align 4
  %106 = add nsw i32 %105, 1
  store i32 %106, i32* %3, align 4
  br label %59

107:                                              ; preds = %59
  br label %108

108:                                              ; preds = %107
  %109 = load i32, i32* %5, align 4
  %110 = add nsw i32 %109, 1
  store i32 %110, i32* %5, align 4
  br label %55

111:                                              ; preds = %55
  %112 = load %struct.student*, %struct.student** %4, align 8
  %113 = load i32, i32* %2, align 4
  %114 = sub nsw i32 %113, 1
  %115 = sext i32 %114 to i64
  %116 = getelementptr inbounds %struct.student, %struct.student* %112, i64 %115
  %117 = getelementptr inbounds %struct.student, %struct.student* %116, i32 0, i32 0
  %118 = load i32, i32* %117, align 4
  %119 = load %struct.student*, %struct.student** %4, align 8
  %120 = load i32, i32* %2, align 4
  %121 = sub nsw i32 %120, 1
  %122 = sext i32 %121 to i64
  %123 = getelementptr inbounds %struct.student, %struct.student* %119, i64 %122
  %124 = getelementptr inbounds %struct.student, %struct.student* %123, i32 0, i32 3
  %125 = load i32, i32* %124, align 4
  %126 = call i32 (i8*, ...) @printf(i8* getelementptr inbounds ([7 x i8], [7 x i8]* @.str.2, i64 0, i64 0), i32 %118, i32 %125)
  %127 = load %struct.student*, %struct.student** %4, align 8
  %128 = load i32, i32* %2, align 4
  %129 = sub nsw i32 %128, 2
  %130 = sext i32 %129 to i64
  %131 = getelementptr inbounds %struct.student, %struct.student* %127, i64 %130
  %132 = getelementptr inbounds %struct.student, %struct.student* %131, i32 0, i32 0
  %133 = load i32, i32* %132, align 4
  %134 = load %struct.student*, %struct.student** %4, align 8
  %135 = load i32, i32* %2, align 4
  %136 = sub nsw i32 %135, 2
  %137 = sext i32 %136 to i64
  %138 = getelementptr inbounds %struct.student, %struct.student* %134, i64 %137
  %139 = getelementptr inbounds %struct.student, %struct.student* %138, i32 0, i32 3
  %140 = load i32, i32* %139, align 4
  %141 = call i32 (i8*, ...) @printf(i8* getelementptr inbounds ([7 x i8], [7 x i8]* @.str.2, i64 0, i64 0), i32 %133, i32 %140)
  %142 = load %struct.student*, %struct.student** %4, align 8
  %143 = load i32, i32* %2, align 4
  %144 = sub nsw i32 %143, 3
  %145 = sext i32 %144 to i64
  %146 = getelementptr inbounds %struct.student, %struct.student* %142, i64 %145
  %147 = getelementptr inbounds %struct.student, %struct.student* %146, i32 0, i32 0
  %148 = load i32, i32* %147, align 4
  %149 = load %struct.student*, %struct.student** %4, align 8
  %150 = load i32, i32* %2, align 4
  %151 = sub nsw i32 %150, 3
  %152 = sext i32 %151 to i64
  %153 = getelementptr inbounds %struct.student, %struct.student* %149, i64 %152
  %154 = getelementptr inbounds %struct.student, %struct.student* %153, i32 0, i32 3
  %155 = load i32, i32* %154, align 4
  %156 = call i32 (i8*, ...) @printf(i8* getelementptr inbounds ([7 x i8], [7 x i8]* @.str.2, i64 0, i64 0), i32 %148, i32 %155)
  %157 = load %struct.student*, %struct.student** %4, align 8
  %158 = bitcast %struct.student* %157 to i8*
  call void @free(i8* %158) #4
  ret i32 0
}

declare dso_local i32 @__isoc99_scanf(i8*, ...) #1

; Function Attrs: nounwind
declare dso_local noalias i8* @malloc(i64) #2

; Function Attrs: argmemonly nounwind willreturn
declare void @llvm.memcpy.p0i8.p0i8.i64(i8* noalias nocapture writeonly, i8* noalias nocapture readonly, i64, i1 immarg) #3

declare dso_local i32 @printf(i8*, ...) #1

; Function Attrs: nounwind
declare dso_local void @free(i8*) #2


!llvm.module.flags = !{!0}
!llvm.ident = !{!1}

!0 = !{i32 1, !"wchar_size", i32 4}
!1 = !{!"clang version 10.0.0-4ubuntu1 "}
